target datalayout = "e-m:e-p270:32:32-p271:32:32-p272:64:64-i64:64-i128:128-f80:128-n8:16:32:64-S128"
target triple = "x86_64-pc-linux-gnu"

%"struct.duckdb::timestamp_t" = type { i64 }
%"struct.duckdb::date_t" = type { i32 }
%"struct.duckdb::dtime_t" = type { i64 }

; Function Attrs: mustprogress uwtable
define void @_ZN6duckdb22GetTimestampComponentsENS_11timestamp_tERiS1_S1_S1_S1_S1_S1_(i64 %0, ptr noundef nonnull align 4 dereferenceable(4) %1, ptr noundef nonnull align 4 dereferenceable(4) %2, ptr noundef nonnull align 4 dereferenceable(4) %3, ptr noundef nonnull align 4 dereferenceable(4) %4, ptr noundef nonnull align 4 dereferenceable(4) %5, ptr noundef nonnull align 4 dereferenceable(4) %6, ptr noundef nonnull align 4 dereferenceable(4) %7) #0 {
  %9 = alloca %"struct.duckdb::timestamp_t", align 8
  %10 = alloca ptr, align 8
  %11 = alloca ptr, align 8
  %12 = alloca ptr, align 8
  %13 = alloca ptr, align 8
  %14 = alloca ptr, align 8
  %15 = alloca ptr, align 8
  %16 = alloca ptr, align 8
  %17 = alloca %"struct.duckdb::date_t", align 4
  %18 = alloca %"struct.duckdb::dtime_t", align 8
  %19 = alloca %"struct.duckdb::timestamp_t", align 8
  %20 = alloca %"struct.duckdb::date_t", align 4
  %21 = alloca %"struct.duckdb::dtime_t", align 8
  %22 = getelementptr inbounds nuw %"struct.duckdb::timestamp_t", ptr %9, i32 0, i32 0
  store i64 %0, ptr %22, align 8
  store ptr %1, ptr %10, align 8, !tbaa !108
  store ptr %2, ptr %11, align 8, !tbaa !108
  store ptr %3, ptr %12, align 8, !tbaa !108
  store ptr %4, ptr %13, align 8, !tbaa !108
  store ptr %5, ptr %14, align 8, !tbaa !108
  store ptr %6, ptr %15, align 8, !tbaa !108
  store ptr %7, ptr %16, align 8, !tbaa !108
  call void @llvm.lifetime.start.p0(i64 4, ptr %17) #8
  call void @llvm.lifetime.start.p0(i64 8, ptr %18) #8
  call void @llvm.memcpy.p0.p0.i64(ptr align 8 %19, ptr align 8 %9, i64 8, i1 false), !tbaa.struct !116
  %23 = getelementptr inbounds nuw %"struct.duckdb::timestamp_t", ptr %19, i32 0, i32 0
  %24 = load i64, ptr %23, align 8
  call void @_ZN6duckdb9Timestamp7ConvertENS_11timestamp_tERNS_6date_tERNS_7dtime_tE(i64 %24, ptr noundef nonnull align 4 dereferenceable(4) %17, ptr noundef nonnull align 8 dereferenceable(8) %18)
  call void @llvm.memcpy.p0.p0.i64(ptr align 4 %20, ptr align 4 %17, i64 4, i1 false), !tbaa.struct !117
  %25 = load ptr, ptr %10, align 8, !tbaa !108
  %26 = load ptr, ptr %11, align 8, !tbaa !108
  %27 = load ptr, ptr %12, align 8, !tbaa !108
  %28 = getelementptr inbounds nuw %"struct.duckdb::date_t", ptr %20, i32 0, i32 0
  %29 = load i32, ptr %28, align 4
  call void @_ZN6duckdb4Date7ConvertENS_6date_tERiS2_S2_(i32 %29, ptr noundef nonnull align 4 dereferenceable(4) %25, ptr noundef nonnull align 4 dereferenceable(4) %26, ptr noundef nonnull align 4 dereferenceable(4) %27)
  call void @llvm.memcpy.p0.p0.i64(ptr align 8 %21, ptr align 8 %18, i64 8, i1 false), !tbaa.struct !116
  %30 = load ptr, ptr %13, align 8, !tbaa !108
  %31 = load ptr, ptr %14, align 8, !tbaa !108
  %32 = load ptr, ptr %15, align 8, !tbaa !108
  %33 = load ptr, ptr %16, align 8, !tbaa !108
  %34 = getelementptr inbounds nuw %"struct.duckdb::dtime_t", ptr %21, i32 0, i32 0
  %35 = load i64, ptr %34, align 8
  call void @_ZN6duckdb4Time7ConvertENS_7dtime_tERiS2_S2_S2_(i64 %35, ptr noundef nonnull align 4 dereferenceable(4) %30, ptr noundef nonnull align 4 dereferenceable(4) %31, ptr noundef nonnull align 4 dereferenceable(4) %32, ptr noundef nonnull align 4 dereferenceable(4) %33)
  call void @llvm.lifetime.end.p0(i64 8, ptr %18) #8
  call void @llvm.lifetime.end.p0(i64 4, ptr %17) #8
  ret void
}