; Function Attrs: mustprogress uwtable
define void @_ZN6duckdb22GetTimestampComponentsENS_11timestamp_tERiS1_S1_S1_S1_S1_S1_(i64 %0, ptr noundef nonnull align 4 dereferenceable(4) %1, ptr noundef nonnull align 4 dereferenceable(4) %2, ptr noundef nonnull align 4 dereferenceable(4) %3, ptr noundef nonnull align 4 dereferenceable(4) %4, ptr noundef nonnull align 4 dereferenceable(4) %5, ptr noundef nonnull align 4 dereferenceable(4) %6, ptr noundef nonnull align 4 dereferenceable(4) %7) local_unnamed_addr #0 {
  %9 = alloca %"struct.duckdb::date_t", align 4
  %10 = alloca %"struct.duckdb::dtime_t", align 8
  call void @llvm.lifetime.start.p0(i64 4, ptr nonnull %9) #27
  call void @llvm.lifetime.start.p0(i64 8, ptr nonnull %10) #27
  call void @_ZN6duckdb9Timestamp7ConvertENS_11timestamp_tERNS_6date_tERNS_7dtime_tE(i64 %0, ptr noundef nonnull align 4 dereferenceable(4) %9, ptr noundef nonnull align 8 dereferenceable(8) %10)
  %.sroa.01.0.copyload = load i32, ptr %9, align 4, !tbaa !86
  call void @_ZN6duckdb4Date7ConvertENS_6date_tERiS2_S2_(i32 %.sroa.01.0.copyload, ptr noundef nonnull align 4 dereferenceable(4) %1, ptr noundef nonnull align 4 dereferenceable(4) %2, ptr noundef nonnull align 4 dereferenceable(4) %3)
  %.sroa.0.0.copyload = load i64, ptr %10, align 8, !tbaa !80
  call void @_ZN6duckdb4Time7ConvertENS_7dtime_tERiS2_S2_S2_(i64 %.sroa.0.0.copyload, ptr noundef nonnull align 4 dereferenceable(4) %4, ptr noundef nonnull align 4 dereferenceable(4) %5, ptr noundef nonnull align 4 dereferenceable(4) %6, ptr noundef nonnull align 4 dereferenceable(4) %7)
  call void @llvm.lifetime.end.p0(i64 8, ptr nonnull %10) #27
  call void @llvm.lifetime.end.p0(i64 4, ptr nonnull %9) #27
  ret void
}